; Function Attrs: mustprogress nounwind uwtable
define internal fastcc void @_ZNSt16allocator_traitsISaIN12_GLOBAL__N_116OptMuxtreeWorker9bitinfo_tEEE7destroyIS2_EEvRS3_PT_(ptr nocapture noundef readonly %0) unnamed_addr #3 align 2 personality ptr @__gxx_personality_v0 {
  %2 = getelementptr inbounds i8, ptr %0, i64 64
  %3 = getelementptr inbounds i8, ptr %0, i64 88
  %4 = load ptr, ptr %3, align 8
  %.not.i.i.i.i.i.i = icmp eq ptr %4, null
  br i1 %.not.i.i.i.i.i.i, label %_ZNSt6vectorIN5Yosys7hashlib4poolIiNS1_8hash_opsIiEEE7entry_tESaIS6_EED2Ev.exit.i.i.i, label %5

5:                                                ; preds = %1
  tail call void @_ZdlPv(ptr noundef nonnull %4) #18
  br label %_ZNSt6vectorIN5Yosys7hashlib4poolIiNS1_8hash_opsIiEEE7entry_tESaIS6_EED2Ev.exit.i.i.i

_ZNSt6vectorIN5Yosys7hashlib4poolIiNS1_8hash_opsIiEEE7entry_tESaIS6_EED2Ev.exit.i.i.i: ; preds = %5, %1
  %6 = load ptr, ptr %2, align 8
  %.not.i.i.i1.i.i.i = icmp eq ptr %6, null
  br i1 %.not.i.i.i1.i.i.i, label %_ZN5Yosys7hashlib4poolIiNS0_8hash_opsIiEEED2Ev.exit.i.i, label %7

7:                                                ; preds = %_ZNSt6vectorIN5Yosys7hashlib4poolIiNS1_8hash_opsIiEEE7entry_tESaIS6_EED2Ev.exit.i.i.i
  tail call void @_ZdlPv(ptr noundef nonnull %6) #18
  br label %_ZN5Yosys7hashlib4poolIiNS0_8hash_opsIiEEED2Ev.exit.i.i

_ZN5Yosys7hashlib4poolIiNS0_8hash_opsIiEEED2Ev.exit.i.i: ; preds = %7, %_ZNSt6vectorIN5Yosys7hashlib4poolIiNS1_8hash_opsIiEEE7entry_tESaIS6_EED2Ev.exit.i.i.i
  %8 = getelementptr inbounds i8, ptr %0, i64 8
  %9 = getelementptr inbounds i8, ptr %0, i64 32
  %10 = load ptr, ptr %9, align 8
  %.not.i.i.i.i1.i.i = icmp eq ptr %10, null
  br i1 %.not.i.i.i.i1.i.i, label %_ZNSt6vectorIN5Yosys7hashlib4poolIiNS1_8hash_opsIiEEE7entry_tESaIS6_EED2Ev.exit.i2.i.i, label %11

11:                                               ; preds = %_ZN5Yosys7hashlib4poolIiNS0_8hash_opsIiEEED2Ev.exit.i.i
  tail call void @_ZdlPv(ptr noundef nonnull %10) #18
  br label %_ZNSt6vectorIN5Yosys7hashlib4poolIiNS1_8hash_opsIiEEE7entry_tESaIS6_EED2Ev.exit.i2.i.i

_ZNSt6vectorIN5Yosys7hashlib4poolIiNS1_8hash_opsIiEEE7entry_tESaIS6_EED2Ev.exit.i2.i.i: ; preds = %11, %_ZN5Yosys7hashlib4poolIiNS0_8hash_opsIiEEED2Ev.exit.i.i
  %12 = load ptr, ptr %8, align 8
  %.not.i.i.i1.i3.i.i = icmp eq ptr %12, null
  br i1 %.not.i.i.i1.i3.i.i, label %_ZNSt15__new_allocatorIN12_GLOBAL__N_116OptMuxtreeWorker9bitinfo_tEE7destroyIS2_EEvPT_.exit, label %13

13:                                               ; preds = %_ZNSt6vectorIN5Yosys7hashlib4poolIiNS1_8hash_opsIiEEE7entry_tESaIS6_EED2Ev.exit.i2.i.i
  tail call void @_ZdlPv(ptr noundef nonnull %12) #18
  br label %_ZNSt15__new_allocatorIN12_GLOBAL__N_116OptMuxtreeWorker9bitinfo_tEE7destroyIS2_EEvPT_.exit

_ZNSt15__new_allocatorIN12_GLOBAL__N_116OptMuxtreeWorker9bitinfo_tEE7destroyIS2_EEvPT_.exit: ; preds = %_ZNSt6vectorIN5Yosys7hashlib4poolIiNS1_8hash_opsIiEEE7entry_tESaIS6_EED2Ev.exit.i2.i.i, %13
  ret void
}